; Function Attrs: mustprogress uwtable
define void @_ZN10open_spiel11tic_tac_toe14TicTacToeState13DoApplyActionEl(ptr noundef nonnull align 8 dereferenceable(108) %0, i64 noundef %1) unnamed_addr #3 align 2 personality ptr @__gxx_personality_v0 {
  %3 = alloca %"class.std::__cxx11::basic_string", align 8
  %4 = alloca %"class.absl::debian2::AlphaNum", align 8
  %5 = alloca %"class.absl::debian2::AlphaNum", align 8
  %6 = alloca i32, align 4
  %7 = alloca i32, align 4
  %8 = alloca %"class.std::__cxx11::basic_string", align 8
  %9 = alloca i32, align 4
  %10 = getelementptr inbounds nuw i8, ptr %0, i64 60
  %11 = getelementptr inbounds [9 x i32], ptr %10, i64 0, i64 %1
  %12 = load i32, ptr %11, align 4
  store i32 %12, ptr %6, align 4
  store i32 0, ptr %7, align 4
  %13 = icmp eq i32 %12, 0
  br i1 %13, label %18, label %14

14:                                               ; preds = %2
  store i32 96, ptr %9, align 4
  call void @_ZN10open_spiel8internal11SpielStrCatIJRA142_KcRA2_S2_iS6_RA34_S2_RA14_S2_RA4_S2_RNS_11tic_tac_toe9CellStateERA23_S2_SF_EEENSt7__cxx1112basic_stringIcSt11char_traitsIcESaIcEEEDpOT_(ptr dead_on_unwind nonnull writable sret(%"class.std::__cxx11::basic_string") align 8 %8, ptr noundef nonnull align 1 dereferenceable(142) @.str.10, ptr noundef nonnull align 1 dereferenceable(2) @.str.11, ptr noundef nonnull align 4 dereferenceable(4) %9, ptr noundef nonnull align 1 dereferenceable(2) @.str.12, ptr noundef nonnull align 1 dereferenceable(34) @.str.13, ptr noundef nonnull align 1 dereferenceable(14) @.str.14, ptr noundef nonnull align 1 dereferenceable(4) @.str.15, ptr noundef nonnull align 4 dereferenceable(4) %6, ptr noundef nonnull align 1 dereferenceable(23) @.str.16, ptr noundef nonnull align 4 dereferenceable(4) %7)
  invoke void @_ZN10open_spiel15SpielFatalErrorERKNSt7__cxx1112basic_stringIcSt11char_traitsIcESaIcEEE(ptr noundef nonnull align 8 dereferenceable(32) %8) #23
          to label %15 unwind label %16

15:                                               ; preds = %14
  unreachable

common.resume:                                    ; preds = %34, %16
  %.sink = phi ptr [ %3, %34 ], [ %8, %16 ]
  %common.resume.op = phi { ptr, i32 } [ %35, %34 ], [ %17, %16 ]
  call void @_ZNSt7__cxx1112basic_stringIcSt11char_traitsIcESaIcEED1Ev(ptr noundef nonnull align 8 dereferenceable(32) %.sink) #24
  resume { ptr, i32 } %common.resume.op

16:                                               ; preds = %14
  %17 = landingpad { ptr, i32 }
          cleanup
  br label %common.resume

18:                                               ; preds = %2
  %19 = load ptr, ptr %0, align 8
  %20 = getelementptr inbounds i8, ptr %19, i64 16
  %21 = load ptr, ptr %20, align 8
  %22 = tail call noundef i32 %21(ptr noundef nonnull align 8 dereferenceable(108) %0)
  call void @llvm.lifetime.start.p0(i64 32, ptr nonnull %3)
  call void @llvm.lifetime.start.p0(i64 48, ptr nonnull %4)
  call void @llvm.lifetime.start.p0(i64 48, ptr nonnull %5)
  switch i32 %22, label %_ZN4absl7debian28AlphaNumC2EPKc.exit.i [
    i32 0, label %_ZN10open_spiel11tic_tac_toe13PlayerToStateEi.exit
    i32 1, label %23
  ]

23:                                               ; preds = %18
  br label %_ZN10open_spiel11tic_tac_toe13PlayerToStateEi.exit

_ZN4absl7debian28AlphaNumC2EPKc.exit.i:           ; preds = %18
  store ptr @.str.5, ptr %4, align 8
  %24 = getelementptr inbounds nuw i8, ptr %4, i64 8
  store i64 18, ptr %24, align 8
  %25 = getelementptr inbounds nuw i8, ptr %5, i64 16
  %26 = call noundef ptr @_ZN4absl7debian216numbers_internal15FastIntToBufferEiPc(i32 noundef %22, ptr noundef nonnull %25)
  %27 = ptrtoint ptr %26 to i64
  %28 = ptrtoint ptr %25 to i64
  %29 = sub i64 %27, %28
  store ptr %25, ptr %5, align 8
  %30 = icmp sgt i64 %29, -1
  br i1 %30, label %_ZN4absl7debian28AlphaNumC2Ei.exit.i, label %31

31:                                               ; preds = %_ZN4absl7debian28AlphaNumC2EPKc.exit.i
  call void @llvm.trap()
  unreachable

_ZN4absl7debian28AlphaNumC2Ei.exit.i:             ; preds = %_ZN4absl7debian28AlphaNumC2EPKc.exit.i
  %32 = getelementptr inbounds nuw i8, ptr %5, i64 8
  store i64 %29, ptr %32, align 8
  call void @_ZN4absl7debian26StrCatB5cxx11ERKNS0_8AlphaNumES3_(ptr dead_on_unwind nonnull writable sret(%"class.std::__cxx11::basic_string") align 8 %3, ptr noundef nonnull align 8 dereferenceable(48) %4, ptr noundef nonnull align 8 dereferenceable(48) %5)
  invoke void @_ZN10open_spiel15SpielFatalErrorERKNSt7__cxx1112basic_stringIcSt11char_traitsIcESaIcEEE(ptr noundef nonnull align 8 dereferenceable(32) %3) #23
          to label %33 unwind label %34

33:                                               ; preds = %_ZN4absl7debian28AlphaNumC2Ei.exit.i
  unreachable

34:                                               ; preds = %_ZN4absl7debian28AlphaNumC2Ei.exit.i
  %35 = landingpad { ptr, i32 }
          cleanup
  br label %common.resume

_ZN10open_spiel11tic_tac_toe13PlayerToStateEi.exit: ; preds = %18, %23
  %.0.i = phi i32 [ 1, %23 ], [ 2, %18 ]
  call void @llvm.lifetime.end.p0(i64 32, ptr nonnull %3)
  call void @llvm.lifetime.end.p0(i64 48, ptr nonnull %4)
  call void @llvm.lifetime.end.p0(i64 48, ptr nonnull %5)
  store i32 %.0.i, ptr %11, align 4
  %36 = getelementptr inbounds nuw i8, ptr %0, i64 96
  %37 = load i32, ptr %36, align 8
  %38 = tail call noundef zeroext i1 @_ZN10open_spiel11tic_tac_toe12BoardHasLineERKSt5arrayINS0_9CellStateELm9EEi(ptr noundef nonnull readonly align 4 dereferenceable(36) %10, i32 noundef %37)
  %.pre = load i32, ptr %36, align 8
  br i1 %38, label %39, label %41

39:                                               ; preds = %_ZN10open_spiel11tic_tac_toe13PlayerToStateEi.exit
  %40 = getelementptr inbounds nuw i8, ptr %0, i64 100
  store i32 %.pre, ptr %40, align 4
  br label %41

41:                                               ; preds = %39, %_ZN10open_spiel11tic_tac_toe13PlayerToStateEi.exit
  %42 = sub nsw i32 1, %.pre
  store i32 %42, ptr %36, align 8
  %43 = getelementptr inbounds nuw i8, ptr %0, i64 104
  %44 = load i32, ptr %43, align 8
  %45 = add nsw i32 %44, 1
  store i32 %45, ptr %43, align 8
  ret void
}